target datalayout = "e-m:e-p270:32:32-p271:32:32-p272:64:64-i64:64-i128:128-f80:128-n8:16:32:64-S128"
target triple = "x86_64-pc-linux-gnu"

; Function Attrs: mustprogress nounwind uwtable
define noundef zeroext i1 @_Z8bRmod_fddddb(double noundef %0, double noundef %1, double noundef %2, i1 noundef zeroext %3) #0 {
  %5 = alloca double, align 8
  %6 = alloca double, align 8
  %7 = alloca double, align 8
  %8 = alloca i8, align 1
  %9 = alloca i32, align 4
  %10 = alloca double, align 8
  store double %0, ptr %5, align 8
  store double %1, ptr %6, align 8
  store double %2, ptr %7, align 8
  %11 = zext i1 %3 to i8
  store i8 %11, ptr %8, align 1
  %12 = load i8, ptr %8, align 1
  %13 = trunc i8 %12 to i1
  %14 = select i1 %13, double 0x3CB0000000000000, double 0x3E80000000000000
  %15 = fmul double 2.000000e+00, %14
  store double %15, ptr %10, align 8
  %16 = load double, ptr %5, align 8
  %17 = load double, ptr %6, align 8
  %18 = fsub double %16, %17
  %19 = load double, ptr %10, align 8
  %20 = load double, ptr %5, align 8
  %21 = call double @llvm.fmuladd.f64(double %19, double %20, double %18)
  %22 = load double, ptr %7, align 8
  %23 = fdiv double %21, %22
  %24 = fptosi double %23 to i32
  store i32 %24, ptr %9, align 4
  %25 = load double, ptr %5, align 8
  %26 = load double, ptr %6, align 8
  %27 = fsub double %25, %26
  %28 = load double, ptr %7, align 8
  %29 = load i32, ptr %9, align 4
  %30 = sitofp i32 %29 to double
  %31 = fneg double %28
  %32 = call double @llvm.fmuladd.f64(double %31, double %30, double %27)
  %33 = call double @llvm.fabs.f64(double %32)
  %34 = load double, ptr %10, align 8
  %35 = load double, ptr %5, align 8
  %36 = call double @llvm.fabs.f64(double %35)
  %37 = fmul double %34, %36
  %38 = fcmp ole double %33, %37
  ret i1 %38
}