; Function Attrs: mustprogress nofree norecurse nosync nounwind willreturn memory(none) uwtable
define noundef zeroext i1 @_Z8bRmod_fddddb(double noundef %0, double noundef %1, double noundef %2, i1 noundef zeroext %3) local_unnamed_addr #0 {
  %5 = select i1 %3, double 0x3CC0000000000000, double 0x3E90000000000000
  %6 = fsub double %0, %1
  %7 = tail call double @llvm.fmuladd.f64(double %5, double %0, double %6)
  %8 = fdiv double %7, %2
  %9 = fptosi double %8 to i32
  %10 = sitofp i32 %9 to double
  %11 = fneg double %2
  %12 = tail call double @llvm.fmuladd.f64(double %11, double %10, double %6)
  %13 = tail call double @llvm.fabs.f64(double %12)
  %14 = tail call double @llvm.fabs.f64(double %0)
  %15 = fmul double %14, %5
  %16 = fcmp ole double %13, %15
  ret i1 %16
}